UNKNOWN:_Z11qt_assert_xPKcS0_S0_i
UNKNOWN:_Z5qFreePv
UNKNOWN:_Z5qHashRK7QString
UNKNOWN:_Z6qFatalPKcz
UNKNOWN:_Z7qMemSetPvim
UNKNOWN:_Z7qstrcmpPKcS0_
UNKNOWN:_Z7qstrcmpRK10QByteArrayPKc
UNKNOWN:_Z7qstrcmpRK10QByteArrayS1_
UNKNOWN:_Z8qWarningPKcz
UNKNOWN:_Z9qBadAllocv
UNKNOWN:_Z9qCompressPKhii
UNKNOWN:_Z9qt_assertPKcS0_i
UNKNOWN:_ZN10QByteArray11fromRawDataEPKci
UNKNOWN:_ZN10QByteArray11shared_nullE
UNKNOWN:_ZN10QByteArray5clearEv
UNKNOWN:_ZN10QByteArray6appendEPKc
UNKNOWN:_ZN10QByteArray6appendERKS_
UNKNOWN:_ZN10QByteArray6appendEc
UNKNOWN:_ZN10QByteArray6removeEii
UNKNOWN:_ZN10QByteArray6resizeEi
UNKNOWN:_ZN10QByteArray7reallocEi
UNKNOWN:_ZN10QByteArrayC1EPKc
UNKNOWN:_ZN10QByteArrayC1EPKci
UNKNOWN:_ZN10QByteArrayaSEPKc
UNKNOWN:_ZN10QByteArrayaSERKS_
UNKNOWN:_ZN10QTextCodec12codecForNameERK10QByteArray
UNKNOWN:_ZN11QDataStream12writeRawDataEPKci
UNKNOWN:_ZN11QDataStreamC1EP10QByteArray6QFlagsIN9QIODevice12OpenModeFlagEE
UNKNOWN:_ZN11QDataStreamC1EP9QIODevice
UNKNOWN:_ZN11QDataStreamD1Ev
UNKNOWN:_ZN11QDataStreamlsEa
UNKNOWN:_ZN11QDataStreamlsEi
UNKNOWN:_ZN11QDataStreamlsEs
UNKNOWN:_ZN11QDataStreamrsERa
UNKNOWN:_ZN11QDataStreamrsERi
UNKNOWN:_ZN11QDomElementaSERKS_
UNKNOWN:_ZN11QMessageBox11informationEP7QWidgetRK7QStringS4_6QFlagsINS_14StandardButtonEES6_
UNKNOWN:_ZN11QTextStream7readAllEv
UNKNOWN:_ZN11QTextStream8setCodecEP10QTextCodec
UNKNOWN:_ZN11QTextStreamC1EP9QIODevice
UNKNOWN:_ZN11QTextStreamD1Ev
UNKNOWN:_ZN11QTextStreamlsEPKc
UNKNOWN:_ZN11QTextStreamlsERK10QByteArray
UNKNOWN:_ZN11QTextStreamlsERK7QString
UNKNOWN:_ZN11QTextStreamlsEi
UNKNOWN:_ZN11QTranslator11qt_metacallEN11QMetaObject4CallEiPPv
UNKNOWN:_ZN11QTranslator11qt_metacastEPKc
UNKNOWN:_ZN11QTranslator16staticMetaObjectE
UNKNOWN:_ZN11QTranslatorC2EP7QObject
UNKNOWN:_ZN11QTranslatorD2Ev
UNKNOWN:_ZN11QVectorData10reallocateEPS_iii
UNKNOWN:_ZN11QVectorData11shared_nullE
UNKNOWN:_ZN11QVectorData4freeEPS_i
UNKNOWN:_ZN11QVectorData4growEiiib
UNKNOWN:_ZN11QVectorData8allocateEii
UNKNOWN:_ZN12QDomDocument10setContentEP9QIODeviceP7QStringPiS4_
UNKNOWN:_ZN12QDomDocumentC1Ev
UNKNOWN:_ZN12QDomDocumentD1Ev
UNKNOWN:_ZN15QXmlInputSourceC1EP9QIODevice
UNKNOWN:_ZN15QXmlInputSourceD1Ev
UNKNOWN:_ZN16QCoreApplication14notifyInternalEP7QObjectP6QEvent
UNKNOWN:_ZN16QCoreApplication16removeTranslatorEP11QTranslator
UNKNOWN:_ZN16QCoreApplication4selfE
UNKNOWN:_ZN16QXmlSimpleReader10setFeatureERK7QStringb
UNKNOWN:_ZN16QXmlSimpleReader15setErrorHandlerEP16QXmlErrorHandler
UNKNOWN:_ZN16QXmlSimpleReader17setContentHandlerEP18QXmlContentHandler
UNKNOWN:_ZN16QXmlSimpleReader5parseERK15QXmlInputSource
UNKNOWN:_ZN16QXmlSimpleReaderC1Ev
UNKNOWN:_ZN16QXmlSimpleReaderD1Ev
UNKNOWN:_ZN18QXmlDefaultHandler10startCDATAEv
UNKNOWN:_ZN18QXmlDefaultHandler11endDocumentEv
UNKNOWN:_ZN18QXmlDefaultHandler11startEntityERK7QString
UNKNOWN:_ZN18QXmlDefaultHandler12notationDeclERK7QStringS2_S2_
UNKNOWN:_ZN18QXmlDefaultHandler13attributeDeclERK7QStringS2_S2_S2_S2_
UNKNOWN:_ZN18QXmlDefaultHandler13resolveEntityERK7QStringS2_RP15QXmlInputSource
UNKNOWN:_ZN18QXmlDefaultHandler13skippedEntityERK7QString
UNKNOWN:_ZN18QXmlDefaultHandler13startDocumentEv
UNKNOWN:_ZN18QXmlDefaultHandler16endPrefixMappingERK7QString
UNKNOWN:_ZN18QXmlDefaultHandler18externalEntityDeclERK7QStringS2_S2_
UNKNOWN:_ZN18QXmlDefaultHandler18internalEntityDeclERK7QStringS2_
UNKNOWN:_ZN18QXmlDefaultHandler18setDocumentLocatorEP11QXmlLocator
UNKNOWN:_ZN18QXmlDefaultHandler18startPrefixMappingERK7QStringS2_
UNKNOWN:_ZN18QXmlDefaultHandler18unparsedEntityDeclERK7QStringS2_S2_S2_
UNKNOWN:_ZN18QXmlDefaultHandler19ignorableWhitespaceERK7QString
UNKNOWN:_ZN18QXmlDefaultHandler21processingInstructionERK7QStringS2_
UNKNOWN:_ZN18QXmlDefaultHandler5errorERK18QXmlParseException
UNKNOWN:_ZN18QXmlDefaultHandler6endDTDEv
UNKNOWN:_ZN18QXmlDefaultHandler7commentERK7QString
UNKNOWN:_ZN18QXmlDefaultHandler7warningERK18QXmlParseException
UNKNOWN:_ZN18QXmlDefaultHandler8endCDATAEv
UNKNOWN:_ZN18QXmlDefaultHandler8startDTDERK7QStringS2_S2_
UNKNOWN:_ZN18QXmlDefaultHandler9endEntityERK7QString
UNKNOWN:_ZN4QDir10setCurrentERK7QString
UNKNOWN:_ZN4QDir11currentPathEv
UNKNOWN:_ZN4QDir14setNameFiltersERK11QStringList
UNKNOWN:_ZN4QDir7setPathERK7QString
UNKNOWN:_ZN4QDir9cleanPathERK7QString
UNKNOWN:_ZN4QDirC1ERK7QString
UNKNOWN:_ZN4QDirD1Ev
UNKNOWN:_ZN5QChar9fromAsciiEc
UNKNOWN:_ZN5QCharC1Ec
UNKNOWN:_ZN5QFile11setFileNameERK7QString
UNKNOWN:_ZN5QFile4openE6QFlagsIN9QIODevice12OpenModeFlagEE
UNKNOWN:_ZN5QFile4openEP8_IO_FILE6QFlagsIN9QIODevice12OpenModeFlagEE
UNKNOWN:_ZN5QFile5closeEv
UNKNOWN:_ZN5QFile6existsERK7QString
UNKNOWN:_ZN5QFileC1ERK7QString
UNKNOWN:_ZN5QFileC1Ev
UNKNOWN:_ZN5QFileD1Ev
UNKNOWN:_ZN6QEventC1ENS_4TypeE
UNKNOWN:_ZN6QEventD1Ev
UNKNOWN:_ZN7QLocaleC1ENS_8LanguageENS_7CountryE
UNKNOWN:_ZN7QLocaleC1ERK7QString
UNKNOWN:_ZN7QLocaleC1ERKS_
UNKNOWN:_ZN7QLocaleC1Ev
UNKNOWN:_ZN7QLocaleaSERKS_
UNKNOWN:_ZN7QObject10childEventEP11QChildEvent
UNKNOWN:_ZN7QObject10timerEventEP11QTimerEvent
UNKNOWN:_ZN7QObject11customEventEP6QEvent
UNKNOWN:_ZN7QObject11eventFilterEPS_P6QEvent
UNKNOWN:_ZN7QObject13connectNotifyEPKc
UNKNOWN:_ZN7QObject16disconnectNotifyEPKc
UNKNOWN:_ZN7QObject16staticMetaObjectE
UNKNOWN:_ZN7QObject5eventEP6QEvent
UNKNOWN:_ZN7QRegExp3capEi
UNKNOWN:_ZN7QRegExpC1ERK7QStringN2Qt15CaseSensitivityENS_13PatternSyntaxE
UNKNOWN:_ZN7QRegExpD1Ev
UNKNOWN:_ZN7QString10fromLatin1EPKci
UNKNOWN:_ZN7QString11shared_nullE
UNKNOWN:_ZN7QString16codecForCStringsE
UNKNOWN:_ZN7QString16fromAscii_helperEPKci
UNKNOWN:_ZN7QString17fromLatin1_helperEPKci
UNKNOWN:_ZN7QString4freeEPNS_4DataE
UNKNOWN:_ZN7QString4growEi
UNKNOWN:_ZN7QString6appendE5QChar
UNKNOWN:_ZN7QString6appendERKS_
UNKNOWN:_ZN7QString6insertEi5QChar
UNKNOWN:_ZN7QString6removeEii
UNKNOWN:_ZN7QString7reallocEi
UNKNOWN:_ZN7QString7replaceE5QCharS0_N2Qt15CaseSensitivityE
UNKNOWN:_ZN7QString7replaceERK7QRegExpRKS_
UNKNOWN:_ZN7QString7replaceERKS_S1_N2Qt15CaseSensitivityE
UNKNOWN:_ZN7QString7replaceEiiRKS_
UNKNOWN:_ZN7QString7sprintfEPKcz
UNKNOWN:_ZN7QString8fromUtf8EPKci
UNKNOWN:_ZN7QString8truncateEi
UNKNOWN:_ZN7QString9fromAsciiEPKci
UNKNOWN:_ZN7QStringC1E5QChar
UNKNOWN:_ZN7QStringaSERKS_
UNKNOWN:_ZN8QDomNodeD1Ev
UNKNOWN:_ZN8QDomNodeD2Ev
UNKNOWN:_ZN8QDomNodeaSERKS_
UNKNOWN:_ZN8QMapData10createDataEi
UNKNOWN:_ZN8QMapData11node_createEPPNS_4NodeEii
UNKNOWN:_ZN8QMapData11node_deleteEPPNS_4NodeEiS1_
UNKNOWN:_ZN8QMapData11shared_nullE
UNKNOWN:_ZN8QMapData16continueFreeDataEi
UNKNOWN:_ZN9QDateTime15currentDateTimeEv
UNKNOWN:_ZN9QDateTimeD1Ev
UNKNOWN:_ZN9QFileInfo7setFileERK7QString
UNKNOWN:_ZN9QFileInfoC1ERK7QString
UNKNOWN:_ZN9QFileInfoC1ERKS_
UNKNOWN:_ZN9QFileInfoC1Ev
UNKNOWN:_ZN9QFileInfoD1Ev
UNKNOWN:_ZN9QFileInfoaSERKS_
UNKNOWN:_ZN9QHashData11free_helperEPFvPNS_4NodeEE
UNKNOWN:_ZN9QHashData11shared_nullE
UNKNOWN:_ZN9QHashData12allocateNodeEi
UNKNOWN:_ZN9QHashData14detach_helper2EPFvPNS_4NodeEPvEPFvS1_Eii
UNKNOWN:_ZN9QHashData6rehashEi
UNKNOWN:_ZN9QHashData8nextNodeEPNS_4NodeE
UNKNOWN:_ZN9QIODevice4readEPcx
UNKNOWN:_ZN9QIODevice7readAllEv
UNKNOWN:_ZN9QListData11detach_growEPii
UNKNOWN:_ZN9QListData11shared_nullE
UNKNOWN:_ZN9QListData5eraseEPPv
UNKNOWN:_ZN9QListData6appendEv
UNKNOWN:_ZN9QListData6detachEi
UNKNOWN:_ZN9QListData6insertEi
UNKNOWN:_ZN9QListData6removeEi
UNKNOWN:_ZN9QListData7reallocEi
UNKNOWN:_ZN9QtPrivate16QStringList_joinEPK11QStringListRK7QString
UNKNOWN:_ZNK10QByteArray10simplifiedEv
UNKNOWN:_ZNK10QByteArray10toLongLongEPbi
UNKNOWN:_ZNK10QByteArray4leftEi
UNKNOWN:_ZNK10QByteArray5countEc
UNKNOWN:_ZNK10QByteArray6isNullEv
UNKNOWN:_ZNK10QByteArray7indexOfEci
UNKNOWN:_ZNK10QTextCodec11fromUnicodeERK7QString
UNKNOWN:_ZNK10QTextCodec9canEncodeERK7QString
UNKNOWN:_ZNK10QTextCodec9toUnicodeEPKc
UNKNOWN:_ZNK10QTextCodec9toUnicodeERK10QByteArray
UNKNOWN:_ZNK11QDataStream5atEndEv
UNKNOWN:_ZNK11QDomElement12hasAttributeERK7QString
UNKNOWN:_ZNK11QDomElement7tagNameEv
UNKNOWN:_ZNK11QDomElement9attributeERK7QStringS2_
UNKNOWN:_ZNK11QMetaObject2trEPKcS1_
UNKNOWN:_ZNK14QXmlAttributes5qNameEi
UNKNOWN:_ZNK14QXmlAttributes5valueERK13QLatin1String
UNKNOWN:_ZNK14QXmlAttributes5valueERK7QString
UNKNOWN:_ZNK14QXmlAttributes5valueEi
UNKNOWN:_ZNK14QXmlAttributes6lengthEv
UNKNOWN:_ZNK17QDomCharacterData4dataEv
UNKNOWN:_ZNK18QXmlDefaultHandler11errorStringEv
UNKNOWN:_ZNK18QXmlParseException10lineNumberEv
UNKNOWN:_ZNK18QXmlParseException12columnNumberEv
UNKNOWN:_ZNK18QXmlParseException7messageEv
UNKNOWN:_ZNK4QDir13entryInfoListE6QFlagsINS_6FilterEES0_INS_8SortFlagEE
UNKNOWN:_ZNK4QDir16absoluteFilePathERK7QString
UNKNOWN:_ZNK4QDir16relativeFilePathERK7QString
UNKNOWN:_ZNK5QFile4sizeEv
UNKNOWN:_ZNK5QFile6existsEv
UNKNOWN:_ZNK5QFile8fileNameEv
UNKNOWN:_ZNK7QLocale7countryEv
UNKNOWN:_ZNK7QLocale8languageEv
UNKNOWN:_ZNK7QRegExp13matchedLengthEv
UNKNOWN:_ZNK7QRegExp7indexInERK7QStringiNS_9CaretModeE
UNKNOWN:_ZNK7QString10simplifiedEv
UNKNOWN:_ZNK7QString10startsWithERK13QLatin1StringN2Qt15CaseSensitivityE
UNKNOWN:_ZNK7QString10startsWithERKS_N2Qt15CaseSensitivityE
UNKNOWN:_ZNK7QString11lastIndexOfE5QChariN2Qt15CaseSensitivityE
UNKNOWN:_ZNK7QString11toLocal8BitEv
UNKNOWN:_ZNK7QString3argERKS_iRK5QChar
UNKNOWN:_ZNK7QString3argExiiRK5QChar
UNKNOWN:_ZNK7QString3midEii
UNKNOWN:_ZNK7QString4leftEi
UNKNOWN:_ZNK7QString5splitERK5QCharNS_13SplitBehaviorEN2Qt15CaseSensitivityE
UNKNOWN:_ZNK7QString5toIntEPbi
UNKNOWN:_ZNK7QString6toUIntEPbi
UNKNOWN:_ZNK7QString6toUtf8Ev
UNKNOWN:_ZNK7QString7compareERK13QLatin1StringN2Qt15CaseSensitivityE
UNKNOWN:_ZNK7QString7compareERKS_
UNKNOWN:_ZNK7QString7indexOfE5QChariN2Qt15CaseSensitivityE
UNKNOWN:_ZNK7QString7indexOfER7QRegExpi
UNKNOWN:_ZNK7QString7indexOfERKS_iN2Qt15CaseSensitivityE
UNKNOWN:_ZNK7QString7sectionERKS_ii6QFlagsINS_11SectionFlagEE
UNKNOWN:_ZNK7QString7toAsciiEv
UNKNOWN:_ZNK7QString7toLowerEv
UNKNOWN:_ZNK7QString8endsWithERK13QLatin1StringN2Qt15CaseSensitivityE
UNKNOWN:_ZNK7QString8endsWithERKS_N2Qt15CaseSensitivityE
UNKNOWN:_ZNK7QString8toLatin1Ev
UNKNOWN:_ZNK7QStringeqERK13QLatin1String
UNKNOWN:_ZNK7QStringeqERKS_
UNKNOWN:_ZNK7QStringltERKS_
UNKNOWN:_ZNK8QDomNode10firstChildEv
UNKNOWN:_ZNK8QDomNode11nextSiblingEv
UNKNOWN:_ZNK8QDomNode6isNullEv
UNKNOWN:_ZNK8QDomNode6toTextEv
UNKNOWN:_ZNK8QDomNode9toElementEv
UNKNOWN:_ZNK9QDateTime8toStringEN2Qt10DateFormatE
UNKNOWN:_ZNK9QFileInfo10isReadableEv
UNKNOWN:_ZNK9QFileInfo10isRelativeEv
UNKNOWN:_ZNK9QFileInfo10isWritableEv
UNKNOWN:_ZNK9QFileInfo11absoluteDirEv
UNKNOWN:_ZNK9QFileInfo16absoluteFilePathEv
UNKNOWN:_ZNK9QFileInfo4pathEv
UNKNOWN:_ZNK9QFileInfo4sizeEv
UNKNOWN:_ZNK9QFileInfo5isDirEv
UNKNOWN:_ZNK9QFileInfo6existsEv
UNKNOWN:_ZNK9QFileInfo6isFileEv
UNKNOWN:_ZNK9QFileInfo6suffixEv
UNKNOWN:_ZNK9QFileInfo8fileNameEv
UNKNOWN:_ZNK9QFileInfo8filePathEv
UNKNOWN:_ZNK9QIODevice11errorStringEv
UNKNOWN:_ZTI11QTranslator
UNKNOWN:_ZTI18QXmlDefaultHandler
UNKNOWN:_ZThn16_N18QXmlDefaultHandler12notationDeclERK7QStringS2_S2_
UNKNOWN:_ZThn16_N18QXmlDefaultHandler18unparsedEntityDeclERK7QStringS2_S2_S2_
UNKNOWN:_ZThn16_NK18QXmlDefaultHandler11errorStringEv
UNKNOWN:_ZThn24_N18QXmlDefaultHandler13resolveEntityERK7QStringS2_RP15QXmlInputSource
UNKNOWN:_ZThn24_NK18QXmlDefaultHandler11errorStringEv
UNKNOWN:_ZThn32_N18QXmlDefaultHandler10startCDATAEv
UNKNOWN:_ZThn32_N18QXmlDefaultHandler11startEntityERK7QString
UNKNOWN:_ZThn32_N18QXmlDefaultHandler6endDTDEv
UNKNOWN:_ZThn32_N18QXmlDefaultHandler7commentERK7QString
UNKNOWN:_ZThn32_N18QXmlDefaultHandler8endCDATAEv
UNKNOWN:_ZThn32_N18QXmlDefaultHandler8startDTDERK7QStringS2_S2_
UNKNOWN:_ZThn32_N18QXmlDefaultHandler9endEntityERK7QString
UNKNOWN:_ZThn32_NK18QXmlDefaultHandler11errorStringEv
UNKNOWN:_ZThn40_N18QXmlDefaultHandler13attributeDeclERK7QStringS2_S2_S2_S2_
UNKNOWN:_ZThn40_N18QXmlDefaultHandler18externalEntityDeclERK7QStringS2_S2_
UNKNOWN:_ZThn40_N18QXmlDefaultHandler18internalEntityDeclERK7QStringS2_
UNKNOWN:_ZThn40_NK18QXmlDefaultHandler11errorStringEv
UNKNOWN:_ZThn8_N18QXmlDefaultHandler5errorERK18QXmlParseException
UNKNOWN:_ZThn8_N18QXmlDefaultHandler7warningERK18QXmlParseException
UNKNOWN:_ZThn8_NK18QXmlDefaultHandler11errorStringEv
UNKNOWN:_ZlsR11QDataStreamRK10QByteArray
UNKNOWN:_ZlsR11QDataStreamRK7QString
libc.so.6:__cxa_atexit
libc.so.6:__errno_location
libc.so.6:__fprintf_chk
libc.so.6:__isoc99_sscanf
libc.so.6:__libc_start_main
libc.so.6:__printf_chk
libc.so.6:__stack_chk_fail
libc.so.6:fclose
libc.so.6:feof
libc.so.6:fopen
libc.so.6:fputc
libc.so.6:fread
libc.so.6:fwrite
libc.so.6:getc
libc.so.6:isalnum
libc.so.6:isalpha
libc.so.6:ispunct
libc.so.6:isspace
libc.so.6:isxdigit
libc.so.6:memcmp
libc.so.6:memcpy
libc.so.6:memset
libc.so.6:popen
libc.so.6:stderr
libc.so.6:stdin
libc.so.6:stdout
libc.so.6:strchr
libc.so.6:strcmp
libc.so.6:strerror
libc.so.6:strlen
libgcc_s.so.1:_Unwind_Resume
libstdc++.so.6:_ZTISt9bad_alloc
libstdc++.so.6:_ZTVN10__cxxabiv120__si_class_type_infoE
libstdc++.so.6:_ZdaPv
libstdc++.so.6:_ZdlPvm
libstdc++.so.6:_Znam
libstdc++.so.6:_Znwm
libstdc++.so.6:__cxa_begin_catch
libstdc++.so.6:__cxa_end_catch
libstdc++.so.6:__cxa_rethrow
libstdc++.so.6:__cxa_throw_bad_array_new_length
libstdc++.so.6:__gxx_personality_v0
